target datalayout = "e-m:e-p270:32:32-p271:32:32-p272:64:64-i64:64-i128:128-f80:128-n8:16:32:64-S128"
target triple = "x86_64-pc-linux-gnu"

%"struct.Luau::NotNull" = type { ptr }
%"struct.Luau::NotNull.0" = type { ptr }
%"struct.Luau::NotNull.1" = type { ptr }
%"struct.Luau::NotNull.2" = type { ptr }
%"struct.Luau::NotNull.3" = type { ptr }
%"struct.Luau::NotNull.4" = type { ptr }
%"struct.Luau::Symbol" = type { ptr, %"struct.Luau::AstName" }
%"struct.Luau::AstName" = type { ptr }
%"struct.Luau::ConstraintGenerator" = type { %"class.std::vector.6", %"class.std::shared_ptr", %"struct.Luau::NotNull.3", %"struct.Luau::NotNull.11", ptr, i32, [4 x i8], %"class.Luau::DenseHashMap", %"class.std::vector.12", %"class.std::vector.12", %"class.Luau::DenseHashMap.17", %"struct.Luau::NotNull.20", %"struct.Luau::RefinementArena", i32, %"class.std::vector.26", %"struct.Luau::NotNull", %"struct.Luau::NotNull.0", %"struct.Luau::NotNull.1", %"struct.Luau::NotNull.2", %"struct.Luau::NotNull.4", %"class.std::shared_ptr.31", %"class.std::function", %"class.std::vector", %"class.Luau::DenseHashMap.34", ptr, %"class.std::vector.37" }
%"class.std::vector.6" = type { %"struct.std::_Vector_base.7" }
%"struct.std::_Vector_base.7" = type { %"struct.std::_Vector_base<std::pair<Luau::Location, std::shared_ptr<Luau::Scope>>, std::allocator<std::pair<Luau::Location, std::shared_ptr<Luau::Scope>>>>::_Vector_impl" }
%"struct.std::_Vector_base<std::pair<Luau::Location, std::shared_ptr<Luau::Scope>>, std::allocator<std::pair<Luau::Location, std::shared_ptr<Luau::Scope>>>>::_Vector_impl" = type { %"struct.std::_Vector_base<std::pair<Luau::Location, std::shared_ptr<Luau::Scope>>, std::allocator<std::pair<Luau::Location, std::shared_ptr<Luau::Scope>>>>::_Vector_impl_data" }
%"struct.std::_Vector_base<std::pair<Luau::Location, std::shared_ptr<Luau::Scope>>, std::allocator<std::pair<Luau::Location, std::shared_ptr<Luau::Scope>>>>::_Vector_impl_data" = type { ptr, ptr, ptr }
%"class.std::shared_ptr" = type { %"class.std::__shared_ptr" }
%"class.std::__shared_ptr" = type { ptr, %"class.std::__shared_count" }
%"class.std::__shared_count" = type { ptr }
%"struct.Luau::NotNull.11" = type { ptr }
%"class.Luau::DenseHashMap" = type { %"class.Luau::detail::DenseHashTable" }
%"class.Luau::detail::DenseHashTable" = type <{ ptr, i64, i64, %"struct.Luau::Symbol", [8 x i8] }>
%"class.std::vector.12" = type { %"struct.std::_Vector_base.13" }
%"struct.std::_Vector_base.13" = type { %"struct.std::_Vector_base<std::unique_ptr<Luau::Constraint>, std::allocator<std::unique_ptr<Luau::Constraint>>>::_Vector_impl" }
%"struct.std::_Vector_base<std::unique_ptr<Luau::Constraint>, std::allocator<std::unique_ptr<Luau::Constraint>>>::_Vector_impl" = type { %"struct.std::_Vector_base<std::unique_ptr<Luau::Constraint>, std::allocator<std::unique_ptr<Luau::Constraint>>>::_Vector_impl_data" }
%"struct.std::_Vector_base<std::unique_ptr<Luau::Constraint>, std::allocator<std::unique_ptr<Luau::Constraint>>>::_Vector_impl_data" = type { ptr, ptr, ptr }
%"class.Luau::DenseHashMap.17" = type { %"class.Luau::detail::DenseHashTable.18" }
%"class.Luau::detail::DenseHashTable.18" = type <{ ptr, i64, i64, ptr, [8 x i8] }>
%"struct.Luau::NotNull.20" = type { ptr }
%"struct.Luau::RefinementArena" = type { %"class.Luau::TypedAllocator" }
%"class.Luau::TypedAllocator" = type { i8, %"class.std::vector.21", i64 }
%"class.std::vector.21" = type { %"struct.std::_Vector_base.22" }
%"struct.std::_Vector_base.22" = type { %"struct.std::_Vector_base<Luau::Variant<Luau::Variadic, Luau::Negation, Luau::Conjunction, Luau::Disjunction, Luau::Equivalence, Luau::Proposition> *, std::allocator<Luau::Variant<Luau::Variadic, Luau::Negation, Luau::Conjunction, Luau::Disjunction, Luau::Equivalence, Luau::Proposition> *>>::_Vector_impl" }
%"struct.std::_Vector_base<Luau::Variant<Luau::Variadic, Luau::Negation, Luau::Conjunction, Luau::Disjunction, Luau::Equivalence, Luau::Proposition> *, std::allocator<Luau::Variant<Luau::Variadic, Luau::Negation, Luau::Conjunction, Luau::Disjunction, Luau::Equivalence, Luau::Proposition> *>>::_Vector_impl" = type { %"struct.std::_Vector_base<Luau::Variant<Luau::Variadic, Luau::Negation, Luau::Conjunction, Luau::Disjunction, Luau::Equivalence, Luau::Proposition> *, std::allocator<Luau::Variant<Luau::Variadic, Luau::Negation, Luau::Conjunction, Luau::Disjunction, Luau::Equivalence, Luau::Proposition> *>>::_Vector_impl_data" }
%"struct.std::_Vector_base<Luau::Variant<Luau::Variadic, Luau::Negation, Luau::Conjunction, Luau::Disjunction, Luau::Equivalence, Luau::Proposition> *, std::allocator<Luau::Variant<Luau::Variadic, Luau::Negation, Luau::Conjunction, Luau::Disjunction, Luau::Equivalence, Luau::Proposition> *>>::_Vector_impl_data" = type { ptr, ptr, ptr }
%"class.std::vector.26" = type { %"struct.std::_Vector_base.27" }
%"struct.std::_Vector_base.27" = type { %"struct.std::_Vector_base<Luau::TypeError, std::allocator<Luau::TypeError>>::_Vector_impl" }
%"struct.std::_Vector_base<Luau::TypeError, std::allocator<Luau::TypeError>>::_Vector_impl" = type { %"struct.std::_Vector_base<Luau::TypeError, std::allocator<Luau::TypeError>>::_Vector_impl_data" }
%"struct.std::_Vector_base<Luau::TypeError, std::allocator<Luau::TypeError>>::_Vector_impl_data" = type { ptr, ptr, ptr }
%"class.std::shared_ptr.31" = type { %"class.std::__shared_ptr.32" }
%"class.std::__shared_ptr.32" = type { ptr, %"class.std::__shared_count" }
%"class.std::function" = type { %"class.std::_Function_base", ptr }
%"class.std::_Function_base" = type { %"union.std::_Any_data", ptr }
%"union.std::_Any_data" = type { %"union.std::_Nocopy_types" }
%"union.std::_Nocopy_types" = type { { i64, i64 } }
%"class.std::vector" = type { %"struct.std::_Vector_base" }
%"struct.std::_Vector_base" = type { %"struct.std::_Vector_base<Luau::RequireCycle, std::allocator<Luau::RequireCycle>>::_Vector_impl" }
%"struct.std::_Vector_base<Luau::RequireCycle, std::allocator<Luau::RequireCycle>>::_Vector_impl" = type { %"struct.std::_Vector_base<Luau::RequireCycle, std::allocator<Luau::RequireCycle>>::_Vector_impl_data" }
%"struct.std::_Vector_base<Luau::RequireCycle, std::allocator<Luau::RequireCycle>>::_Vector_impl_data" = type { ptr, ptr, ptr }
%"class.Luau::DenseHashMap.34" = type { %"class.Luau::detail::DenseHashTable.35" }
%"class.Luau::detail::DenseHashTable.35" = type <{ ptr, i64, i64, ptr, [8 x i8] }>
%"class.std::vector.37" = type { %"struct.std::_Vector_base.38" }
%"struct.std::_Vector_base.38" = type { %"struct.std::_Vector_base<std::vector<const Luau::Type *>, std::allocator<std::vector<const Luau::Type *>>>::_Vector_impl" }
%"struct.std::_Vector_base<std::vector<const Luau::Type *>, std::allocator<std::vector<const Luau::Type *>>>::_Vector_impl" = type { %"struct.std::_Vector_base<std::vector<const Luau::Type *>, std::allocator<std::vector<const Luau::Type *>>>::_Vector_impl_data" }
%"struct.std::_Vector_base<std::vector<const Luau::Type *>, std::allocator<std::vector<const Luau::Type *>>>::_Vector_impl_data" = type { ptr, ptr, ptr }
%"struct.Luau::Location" = type { %"struct.Luau::Position", %"struct.Luau::Position" }
%"struct.Luau::Position" = type { i32, i32 }
%"struct.Luau::BuiltinTypes" = type { %"class.std::unique_ptr", i8, ptr, ptr, ptr, ptr, ptr, ptr, ptr, ptr, ptr, ptr, ptr, ptr, ptr, ptr, ptr, ptr, ptr, ptr, ptr, ptr, ptr, ptr, ptr, ptr, ptr, ptr, ptr }
%"class.std::unique_ptr" = type { %"struct.std::__uniq_ptr_data" }
%"struct.std::__uniq_ptr_data" = type { %"class.std::__uniq_ptr_impl" }
%"class.std::__uniq_ptr_impl" = type { %"class.std::tuple" }
%"class.std::tuple" = type { %"struct.std::_Tuple_impl" }
%"struct.std::_Tuple_impl" = type { %"struct.std::_Head_base.361" }
%"struct.std::_Head_base.361" = type { ptr }
%"class.Luau::AstNode.base" = type <{ ptr, i32, %"struct.Luau::Location" }>
%"class.std::optional.479" = type { %"struct.std::_Optional_base.480" }
%"struct.std::_Optional_base.480" = type { %"struct.std::_Optional_payload.482" }
%"struct.std::_Optional_payload.482" = type { %"struct.std::_Optional_payload_base.base.484", [7 x i8] }
%"struct.std::_Optional_payload_base.base.484" = type <{ %"union.std::_Optional_payload_base<const Luau::Type *>::_Storage", i8 }>
%"union.std::_Optional_payload_base<const Luau::Type *>::_Storage" = type { ptr }
%"class.Luau::AstExpr.base" = type { %"class.Luau::AstNode.base" }
%"struct.Luau::Inference" = type { ptr, ptr }
%"struct.Luau::AstArray.665" = type { ptr, i64 }
%"class.Luau::AstExprInterpString" = type { %"class.Luau::AstExpr.base", %"struct.Luau::AstArray.774", %"struct.Luau::AstArray.665" }
%"struct.Luau::AstArray.774" = type { ptr, i64 }
%"struct.std::_Optional_payload_base.483" = type <{ %"union.std::_Optional_payload_base<const Luau::Type *>::_Storage", i8, [7 x i8] }>

; Function Attrs: mustprogress nounwind uwtable
define linkonce_odr dso_local void @_ZNSt22_Optional_payload_baseIPKN4Luau4TypeEE8_StorageIS3_Lb1EEC2Ev(ptr noundef nonnull align 8 dereferenceable(8) %0) unnamed_addr #2 comdat align 2 {
  %2 = alloca ptr, align 8
  store ptr %0, ptr %2, align 8, !tbaa !1705
  ret void
}

; Function Attrs: mustprogress nounwind uwtable
define linkonce_odr dso_local void @_ZNSt22_Optional_payload_baseIPKN4Luau4TypeEEC2Ev(ptr noundef nonnull align 8 dereferenceable(9) %0) unnamed_addr #2 comdat align 2 {
  %2 = alloca ptr, align 8
  store ptr %0, ptr %2, align 8, !tbaa !1699
  %3 = load ptr, ptr %2, align 8
  %4 = getelementptr inbounds nuw %"struct.std::_Optional_payload_base.483", ptr %3, i32 0, i32 0
  call void @_ZNSt22_Optional_payload_baseIPKN4Luau4TypeEE8_StorageIS3_Lb1EEC2Ev(ptr noundef nonnull align 8 dereferenceable(8) %4) #22
  %5 = getelementptr inbounds nuw %"struct.std::_Optional_payload_base.483", ptr %3, i32 0, i32 1
  store i8 0, ptr %5, align 8, !tbaa !1698
  ret void
}

; Function Attrs: mustprogress nounwind uwtable
define linkonce_odr dso_local void @_ZNSt17_Optional_payloadIPKN4Luau4TypeELb1ELb1ELb1EEC2Ev(ptr noundef nonnull align 8 dereferenceable(9) %0) unnamed_addr #2 comdat align 2 {
  %2 = alloca ptr, align 8
  store ptr %0, ptr %2, align 8, !tbaa !1703
  %3 = load ptr, ptr %2, align 8
  call void @_ZNSt22_Optional_payload_baseIPKN4Luau4TypeEEC2Ev(ptr noundef nonnull align 8 dereferenceable(9) %3) #22
  ret void
}

; Function Attrs: mustprogress nounwind uwtable
define linkonce_odr dso_local void @_ZNSt14_Optional_baseIPKN4Luau4TypeELb1ELb1EEC2Ev(ptr noundef nonnull align 8 dereferenceable(16) %0) unnamed_addr #2 comdat align 2 {
  %2 = alloca ptr, align 8
  store ptr %0, ptr %2, align 8, !tbaa !1701
  %3 = load ptr, ptr %2, align 8
  %4 = getelementptr inbounds nuw %"struct.std::_Optional_base.480", ptr %3, i32 0, i32 0
  call void @_ZNSt17_Optional_payloadIPKN4Luau4TypeELb1ELb1ELb1EEC2Ev(ptr noundef nonnull align 8 dereferenceable(9) %4) #22
  ret void
}

; Function Attrs: mustprogress nounwind uwtable
define linkonce_odr dso_local void @_ZN4Luau9InferenceC2EPKNS_4TypeEPNS_7VariantIJNS_8VariadicENS_8NegationENS_11ConjunctionENS_11DisjunctionENS_11EquivalenceENS_11PropositionEEEE(ptr noundef nonnull align 8 dereferenceable(16) %0, ptr noundef %1, ptr noundef %2) unnamed_addr #2 comdat align 2 {
  %4 = alloca ptr, align 8
  %5 = alloca ptr, align 8
  %6 = alloca ptr, align 8
  store ptr %0, ptr %4, align 8, !tbaa !1315
  store ptr %1, ptr %5, align 8, !tbaa !157
  store ptr %2, ptr %6, align 8, !tbaa !470
  %7 = load ptr, ptr %4, align 8
  %8 = getelementptr inbounds nuw %"struct.Luau::Inference", ptr %7, i32 0, i32 0
  %9 = load ptr, ptr %5, align 8, !tbaa !157
  store ptr %9, ptr %8, align 8, !tbaa !891
  %10 = getelementptr inbounds nuw %"struct.Luau::Inference", ptr %7, i32 0, i32 1
  %11 = load ptr, ptr %6, align 8, !tbaa !470
  store ptr %11, ptr %10, align 8, !tbaa !874
  ret void
}

; Function Attrs: mustprogress nounwind uwtable
define linkonce_odr dso_local noundef ptr @_ZNK4Luau7NotNullINS_12BuiltinTypesEEptEv(ptr noundef nonnull align 8 dereferenceable(8) %0) #2 comdat align 2 {
  %2 = alloca ptr, align 8
  store ptr %0, ptr %2, align 8, !tbaa !312
  %3 = load ptr, ptr %2, align 8
  %4 = getelementptr inbounds nuw %"struct.Luau::NotNull.3", ptr %3, i32 0, i32 0
  %5 = load ptr, ptr %4, align 8, !tbaa !314
  ret ptr %5
}

; Function Attrs: mustprogress nounwind uwtable
define linkonce_odr dso_local void @_ZNSt8optionalIPKN4Luau4TypeEEC2Ev(ptr noundef nonnull align 8 dereferenceable(16) %0) unnamed_addr #2 comdat align 2 {
  %2 = alloca ptr, align 8
  store ptr %0, ptr %2, align 8, !tbaa !413
  %3 = load ptr, ptr %2, align 8
  call void @_ZNSt14_Optional_baseIPKN4Luau4TypeELb1ELb1EEC2Ev(ptr noundef nonnull align 8 dereferenceable(16) %3) #22
  ret void
}

; Function Attrs: mustprogress nounwind uwtable
define linkonce_odr dso_local noundef ptr @_ZNK4Luau8AstArrayIPNS_7AstExprEE3endEv(ptr noundef nonnull align 8 dereferenceable(16) %0) #2 comdat align 2 {
  %2 = alloca ptr, align 8
  store ptr %0, ptr %2, align 8, !tbaa !1031
  %3 = load ptr, ptr %2, align 8
  %4 = getelementptr inbounds nuw %"struct.Luau::AstArray.665", ptr %3, i32 0, i32 0
  %5 = load ptr, ptr %4, align 8, !tbaa !1082
  %6 = getelementptr inbounds nuw %"struct.Luau::AstArray.665", ptr %3, i32 0, i32 1
  %7 = load i64, ptr %6, align 8, !tbaa !1081
  %8 = getelementptr inbounds nuw ptr, ptr %5, i64 %7
  ret ptr %8
}

; Function Attrs: mustprogress nounwind uwtable
define linkonce_odr dso_local noundef ptr @_ZNK4Luau8AstArrayIPNS_7AstExprEE5beginEv(ptr noundef nonnull align 8 dereferenceable(16) %0) #2 comdat align 2 {
  %2 = alloca ptr, align 8
  store ptr %0, ptr %2, align 8, !tbaa !1031
  %3 = load ptr, ptr %2, align 8
  %4 = getelementptr inbounds nuw %"struct.Luau::AstArray.665", ptr %3, i32 0, i32 0
  %5 = load ptr, ptr %4, align 8, !tbaa !1082
  ret ptr %5
}

; Function Attrs: mustprogress uwtable
define dso_local { ptr, ptr } @_ZN4Luau19ConstraintGenerator5checkERKSt10shared_ptrINS_5ScopeEEPNS_19AstExprInterpStringE(ptr noundef nonnull align 8 dereferenceable(472) %0, ptr noundef nonnull align 8 dereferenceable(16) %1, ptr noundef %2) #3 align 2 {
  %4 = alloca %"struct.Luau::Inference", align 8
  %5 = alloca ptr, align 8
  %6 = alloca ptr, align 8
  %7 = alloca ptr, align 8
  %8 = alloca ptr, align 8
  %9 = alloca ptr, align 8
  %10 = alloca ptr, align 8
  %11 = alloca ptr, align 8
  %12 = alloca %"class.std::optional.479", align 8
  %13 = alloca %"struct.Luau::Inference", align 8
  store ptr %0, ptr %5, align 8, !tbaa !22
  store ptr %1, ptr %6, align 8, !tbaa !26
  store ptr %2, ptr %7, align 8, !tbaa !1146
  %14 = load ptr, ptr %5, align 8
  call void @llvm.lifetime.start.p0(i64 8, ptr %8) #22
  %15 = load ptr, ptr %7, align 8, !tbaa !1146
  %16 = getelementptr inbounds nuw %"class.Luau::AstExprInterpString", ptr %15, i32 0, i32 2
  store ptr %16, ptr %8, align 8, !tbaa !1031
  call void @llvm.lifetime.start.p0(i64 8, ptr %9) #22
  %17 = load ptr, ptr %8, align 8, !tbaa !1031
  %18 = call noundef ptr @_ZNK4Luau8AstArrayIPNS_7AstExprEE5beginEv(ptr noundef nonnull align 8 dereferenceable(16) %17)
  store ptr %18, ptr %9, align 8, !tbaa !882
  call void @llvm.lifetime.start.p0(i64 8, ptr %10) #22
  %19 = load ptr, ptr %8, align 8, !tbaa !1031
  %20 = call noundef ptr @_ZNK4Luau8AstArrayIPNS_7AstExprEE3endEv(ptr noundef nonnull align 8 dereferenceable(16) %19)
  store ptr %20, ptr %10, align 8, !tbaa !882
  br label %21

21:                                               ; preds = %40, %3
  %22 = load ptr, ptr %9, align 8, !tbaa !882
  %23 = load ptr, ptr %10, align 8, !tbaa !882
  %24 = icmp ne ptr %22, %23
  br i1 %24, label %26, label %25

25:                                               ; preds = %21
  call void @llvm.lifetime.end.p0(i64 8, ptr %10) #22
  call void @llvm.lifetime.end.p0(i64 8, ptr %9) #22
  call void @llvm.lifetime.end.p0(i64 8, ptr %8) #22
  br label %43

26:                                               ; preds = %21
  call void @llvm.lifetime.start.p0(i64 8, ptr %11) #22
  %27 = load ptr, ptr %9, align 8, !tbaa !882
  %28 = load ptr, ptr %27, align 8, !tbaa !886
  store ptr %28, ptr %11, align 8, !tbaa !886
  %29 = load ptr, ptr %6, align 8, !tbaa !26
  %30 = load ptr, ptr %11, align 8, !tbaa !886
  call void @_ZNSt8optionalIPKN4Luau4TypeEEC2Ev(ptr noundef nonnull align 8 dereferenceable(16) %12) #22
  %31 = getelementptr inbounds nuw { ptr, i8 }, ptr %12, i32 0, i32 0
  %32 = load ptr, ptr %31, align 8
  %33 = getelementptr inbounds nuw { ptr, i8 }, ptr %12, i32 0, i32 1
  %34 = load i8, ptr %33, align 8
  %35 = call { ptr, ptr } @_ZN4Luau19ConstraintGenerator5checkERKSt10shared_ptrINS_5ScopeEEPNS_7AstExprESt8optionalIPKNS_4TypeEEbb(ptr noundef nonnull align 8 dereferenceable(472) %14, ptr noundef nonnull align 8 dereferenceable(16) %29, ptr noundef %30, ptr %32, i8 %34, i1 noundef zeroext false, i1 noundef zeroext true)
  %36 = getelementptr inbounds nuw { ptr, ptr }, ptr %13, i32 0, i32 0
  %37 = extractvalue { ptr, ptr } %35, 0
  store ptr %37, ptr %36, align 8
  %38 = getelementptr inbounds nuw { ptr, ptr }, ptr %13, i32 0, i32 1
  %39 = extractvalue { ptr, ptr } %35, 1
  store ptr %39, ptr %38, align 8
  call void @llvm.lifetime.end.p0(i64 8, ptr %11) #22
  br label %40

40:                                               ; preds = %26
  %41 = load ptr, ptr %9, align 8, !tbaa !882
  %42 = getelementptr inbounds nuw ptr, ptr %41, i32 1
  store ptr %42, ptr %9, align 8, !tbaa !882
  br label %21

43:                                               ; preds = %25
  %44 = getelementptr inbounds nuw %"struct.Luau::ConstraintGenerator", ptr %14, i32 0, i32 2
  %45 = call noundef ptr @_ZNK4Luau7NotNullINS_12BuiltinTypesEEptEv(ptr noundef nonnull align 8 dereferenceable(8) %44) #22
  %46 = getelementptr inbounds nuw %"struct.Luau::BuiltinTypes", ptr %45, i32 0, i32 4
  %47 = load ptr, ptr %46, align 8, !tbaa !1323
  call void @_ZN4Luau9InferenceC2EPKNS_4TypeEPNS_7VariantIJNS_8VariadicENS_8NegationENS_11ConjunctionENS_11DisjunctionENS_11EquivalenceENS_11PropositionEEEE(ptr noundef nonnull align 8 dereferenceable(16) %4, ptr noundef %47, ptr noundef null)
  %48 = load { ptr, ptr }, ptr %4, align 8
  ret { ptr, ptr } %48
}