; Function Attrs: mustprogress uwtable
define dso_local { ptr, ptr } @_ZN4Luau19ConstraintGenerator5checkERKSt10shared_ptrINS_5ScopeEEPNS_19AstExprInterpStringE(ptr noundef nonnull align 8 dereferenceable(472) %0, ptr noundef nonnull align 8 dereferenceable(16) %1, ptr noundef readonly captures(none) %2) local_unnamed_addr #5 align 2 {
  %4 = getelementptr inbounds nuw i8, ptr %2, i64 48
  %5 = load ptr, ptr %4, align 8, !tbaa !894
  %6 = getelementptr inbounds nuw i8, ptr %2, i64 56
  %7 = load i64, ptr %6, align 8, !tbaa !895
  %8 = getelementptr inbounds nuw ptr, ptr %5, i64 %7
  %.not11 = icmp eq i64 %7, 0
  br i1 %.not11, label %._crit_edge, label %.lr.ph

._crit_edge:                                      ; preds = %.lr.ph, %3
  %9 = getelementptr inbounds nuw i8, ptr %0, i64 40
  %10 = load ptr, ptr %9, align 8, !tbaa !204
  %11 = getelementptr inbounds nuw i8, ptr %10, i64 32
  %12 = load ptr, ptr %11, align 8, !tbaa !1077
  %.fca.0.insert = insertvalue { ptr, ptr } poison, ptr %12, 0
  %.fca.1.insert = insertvalue { ptr, ptr } %.fca.0.insert, ptr null, 1
  ret { ptr, ptr } %.fca.1.insert

.lr.ph:                                           ; preds = %3, %.lr.ph
  %.012 = phi ptr [ %15, %.lr.ph ], [ %5, %3 ]
  %13 = load ptr, ptr %.012, align 8, !tbaa !709
  %14 = tail call { ptr, ptr } @_ZN4Luau19ConstraintGenerator5checkERKSt10shared_ptrINS_5ScopeEEPNS_7AstExprESt8optionalIPKNS_4TypeEEbb(ptr noundef nonnull align 8 dereferenceable(472) %0, ptr noundef nonnull align 8 dereferenceable(16) %1, ptr noundef %13, ptr undef, i8 0, i1 noundef zeroext false, i1 noundef zeroext true)
  %15 = getelementptr inbounds nuw i8, ptr %.012, i64 8
  %.not = icmp eq ptr %15, %8
  br i1 %.not, label %._crit_edge, label %.lr.ph
}